target datalayout = "e-m:e-p270:32:32-p271:32:32-p272:64:64-i64:64-i128:128-f80:128-n8:16:32:64-S128"
target triple = "x86_64-unknown-linux-gnu"

%class.obj_ref = type { ptr, ptr }
%class.params_ref = type { ptr }
%struct.mk_ismt2_pp = type { ptr, ptr, %class.params_ref, ptr, i32, i32, ptr }

@_ZN11mk_ismt2_ppC1EP3astR11ast_managerjjPKc = hidden unnamed_addr alias void (ptr, ptr, ptr, i32, i32, ptr), ptr @_ZN11mk_ismt2_ppC2EP3astR11ast_managerjjPKc

; Function Attrs: mustprogress nounwind uwtable
define linkonce_odr hidden void @_ZN11mk_ismt2_ppD2Ev(ptr noundef nonnull align 8 dereferenceable(48) %this) unnamed_addr #5 comdat align 2 {
entry:
  %this.addr = alloca ptr, align 8
  store ptr %this, ptr %this.addr, align 8
  %this1 = load ptr, ptr %this.addr, align 8
  %m_empty = getelementptr inbounds %struct.mk_ismt2_pp, ptr %this1, i32 0, i32 2
  call void @_ZN10params_refD1Ev(ptr noundef nonnull align 8 dereferenceable(8) %m_empty) #3
  ret void
}

; Function Attrs: mustprogress nounwind uwtable
define linkonce_odr hidden noundef nonnull align 8 dereferenceable(976) ptr @_ZNK7obj_refI3app11ast_managerE11get_managerEv(ptr noundef nonnull align 8 dereferenceable(16) %this) #5 comdat align 2 {
entry:
  %this.addr = alloca ptr, align 8
  store ptr %this, ptr %this.addr, align 8
  %this1 = load ptr, ptr %this.addr, align 8
  %m_manager = getelementptr inbounds %class.obj_ref, ptr %this1, i32 0, i32 1
  %0 = load ptr, ptr %m_manager, align 8
  ret ptr %0
}

; Function Attrs: mustprogress nounwind uwtable
define linkonce_odr hidden noundef ptr @_ZNK7obj_refI3app11ast_managerE3getEv(ptr noundef nonnull align 8 dereferenceable(16) %this) #5 comdat align 2 {
entry:
  %this.addr = alloca ptr, align 8
  store ptr %this, ptr %this.addr, align 8
  %this1 = load ptr, ptr %this.addr, align 8
  %m_obj = getelementptr inbounds %class.obj_ref, ptr %this1, i32 0, i32 0
  %0 = load ptr, ptr %m_obj, align 8
  ret ptr %0
}

; Function Attrs: mustprogress uwtable
define hidden noundef nonnull align 8 dereferenceable(8) ptr @_ZlsRSoRK7obj_refI3app11ast_managerE(ptr noundef nonnull align 8 dereferenceable(8) %out, ptr noundef nonnull align 8 dereferenceable(16) %e) #4 personality ptr @__gxx_personality_v0 {
entry:
  %out.addr = alloca ptr, align 8
  %e.addr = alloca ptr, align 8
  %ref.tmp = alloca %struct.mk_ismt2_pp, align 8
  %exn.slot = alloca ptr, align 8
  %ehselector.slot = alloca i32, align 4
  store ptr %out, ptr %out.addr, align 8
  store ptr %e, ptr %e.addr, align 8
  %0 = load ptr, ptr %out.addr, align 8
  %1 = load ptr, ptr %e.addr, align 8
  %call = call noundef ptr @_ZNK7obj_refI3app11ast_managerE3getEv(ptr noundef nonnull align 8 dereferenceable(16) %1)
  %2 = load ptr, ptr %e.addr, align 8
  %call1 = call noundef nonnull align 8 dereferenceable(976) ptr @_ZNK7obj_refI3app11ast_managerE11get_managerEv(ptr noundef nonnull align 8 dereferenceable(16) %2)
  call void @_ZN11mk_ismt2_ppC1EP3astR11ast_managerjjPKc(ptr noundef nonnull align 8 dereferenceable(48) %ref.tmp, ptr noundef %call, ptr noundef nonnull align 8 dereferenceable(976) %call1, i32 noundef 0, i32 noundef 0, ptr noundef null)
  %call2 = invoke noundef nonnull align 8 dereferenceable(8) ptr @_ZlsRSoRK11mk_ismt2_pp(ptr noundef nonnull align 8 dereferenceable(8) %0, ptr noundef nonnull align 8 dereferenceable(48) %ref.tmp)
          to label %invoke.cont unwind label %lpad

invoke.cont:                                      ; preds = %entry
  call void @_ZN11mk_ismt2_ppD2Ev(ptr noundef nonnull align 8 dereferenceable(48) %ref.tmp) #3
  ret ptr %call2

lpad:                                             ; preds = %entry
  %3 = landingpad { ptr, i32 }
          cleanup
  %4 = extractvalue { ptr, i32 } %3, 0
  store ptr %4, ptr %exn.slot, align 8
  %5 = extractvalue { ptr, i32 } %3, 1
  store i32 %5, ptr %ehselector.slot, align 4
  call void @_ZN11mk_ismt2_ppD2Ev(ptr noundef nonnull align 8 dereferenceable(48) %ref.tmp) #3
  br label %eh.resume

eh.resume:                                        ; preds = %lpad
  %exn = load ptr, ptr %exn.slot, align 8
  %sel = load i32, ptr %ehselector.slot, align 4
  %lpad.val = insertvalue { ptr, i32 } poison, ptr %exn, 0
  %lpad.val3 = insertvalue { ptr, i32 } %lpad.val, i32 %sel, 1
  resume { ptr, i32 } %lpad.val3
}