; Function Attrs: mustprogress uwtable
define hidden noundef nonnull align 8 dereferenceable(8) ptr @_ZlsRSoRK7obj_refI3app11ast_managerE(ptr noundef nonnull returned align 8 dereferenceable(8) %out, ptr nocapture noundef nonnull readonly align 8 dereferenceable(16) %e) local_unnamed_addr #3 personality ptr @__gxx_personality_v0 {
entry:
  %ref.tmp = alloca %struct.mk_ismt2_pp, align 16
  %0 = load <2 x ptr>, ptr %e, align 8
  store <2 x ptr> %0, ptr %ref.tmp, align 16
  %m_empty.i = getelementptr inbounds i8, ptr %ref.tmp, i64 16
  store ptr null, ptr %m_empty.i, align 16
  %m_params.i = getelementptr inbounds i8, ptr %ref.tmp, i64 24
  store ptr %m_empty.i, ptr %m_params.i, align 8
  %m_indent.i = getelementptr inbounds i8, ptr %ref.tmp, i64 32
  call void @llvm.memset.p0.i64(ptr noundef nonnull align 16 dereferenceable(16) %m_indent.i, i8 0, i64 16, i1 false)
  %call2 = invoke noundef nonnull align 8 dereferenceable(8) ptr @_ZlsRSoRK11mk_ismt2_pp(ptr noundef nonnull align 8 dereferenceable(8) %out, ptr noundef nonnull align 8 dereferenceable(48) %ref.tmp)
          to label %invoke.cont unwind label %lpad

invoke.cont:                                      ; preds = %entry
  call void @_ZN10params_refD1Ev(ptr noundef nonnull align 8 dereferenceable(8) %m_empty.i) #19
  ret ptr %out

lpad:                                             ; preds = %entry
  %1 = landingpad { ptr, i32 }
          cleanup
  call void @_ZN10params_refD1Ev(ptr noundef nonnull align 8 dereferenceable(8) %m_empty.i) #19
  resume { ptr, i32 } %1
}